; Function Attrs: inlinehint mustprogress uwtable
define internal fastcc noundef zeroext i8 @_ZL10stbi__get8P13stbi__context(ptr noundef %0) unnamed_addr #11 {
  %2 = getelementptr inbounds nuw i8, ptr %0, i64 192
  %3 = load ptr, ptr %2, align 8, !tbaa !21
  %4 = getelementptr inbounds nuw i8, ptr %0, i64 200
  %5 = load ptr, ptr %4, align 8, !tbaa !24
  %6 = icmp ult ptr %3, %5
  br i1 %6, label %7, label %10

7:                                                ; preds = %1
  %8 = getelementptr inbounds nuw i8, ptr %3, i64 1
  store ptr %8, ptr %2, align 8, !tbaa !21
  %9 = load i8, ptr %3, align 1, !tbaa !23
  br label %40

10:                                               ; preds = %1
  %11 = getelementptr inbounds nuw i8, ptr %0, i64 48
  %12 = load i32, ptr %11, align 8, !tbaa !18
  %.not = icmp eq i32 %12, 0
  br i1 %.not, label %40, label %13

13:                                               ; preds = %10
  %14 = getelementptr inbounds nuw i8, ptr %0, i64 16
  %15 = load ptr, ptr %14, align 8, !tbaa !22
  %16 = getelementptr inbounds nuw i8, ptr %0, i64 40
  %17 = load ptr, ptr %16, align 8, !tbaa !14
  %18 = getelementptr inbounds nuw i8, ptr %0, i64 56
  %19 = getelementptr inbounds nuw i8, ptr %0, i64 52
  %20 = load i32, ptr %19, align 4, !tbaa !17
  %21 = tail call noundef i32 %15(ptr noundef %17, ptr noundef nonnull %18, i32 noundef %20)
  %22 = load ptr, ptr %2, align 8, !tbaa !21
  %23 = getelementptr inbounds nuw i8, ptr %0, i64 208
  %24 = load ptr, ptr %23, align 8, !tbaa !20
  %25 = ptrtoint ptr %22 to i64
  %26 = ptrtoint ptr %24 to i64
  %27 = sub i64 %25, %26
  %28 = trunc i64 %27 to i32
  %29 = getelementptr inbounds nuw i8, ptr %0, i64 184
  %30 = load i32, ptr %29, align 8, !tbaa !19
  %31 = add nsw i32 %30, %28
  store i32 %31, ptr %29, align 8, !tbaa !19
  %32 = icmp eq i32 %21, 0
  br i1 %32, label %33, label %35

33:                                               ; preds = %13
  store i32 0, ptr %11, align 8, !tbaa !18
  %34 = getelementptr inbounds nuw i8, ptr %0, i64 57
  store i8 0, ptr %18, align 1, !tbaa !23
  br label %_ZL19stbi__refill_bufferP13stbi__context.exit

35:                                               ; preds = %13
  %36 = sext i32 %21 to i64
  %37 = getelementptr inbounds i8, ptr %18, i64 %36
  %.pre = load i8, ptr %18, align 1, !tbaa !23
  br label %_ZL19stbi__refill_bufferP13stbi__context.exit

_ZL19stbi__refill_bufferP13stbi__context.exit:    ; preds = %33, %35
  %38 = phi i8 [ 0, %33 ], [ %.pre, %35 ]
  %.sink.i = phi ptr [ %34, %33 ], [ %37, %35 ]
  store ptr %.sink.i, ptr %4, align 8, !tbaa !24
  %39 = getelementptr inbounds nuw i8, ptr %0, i64 57
  store ptr %39, ptr %2, align 8, !tbaa !21
  br label %40

40:                                               ; preds = %10, %_ZL19stbi__refill_bufferP13stbi__context.exit, %7
  %.0 = phi i8 [ %9, %7 ], [ %38, %_ZL19stbi__refill_bufferP13stbi__context.exit ], [ 0, %10 ]
  ret i8 %.0
}